target datalayout = "e-m:e-p270:32:32-p271:32:32-p272:64:64-i64:64-i128:128-f80:128-n8:16:32:64-S128"
target triple = "x86_64-pc-linux-gnu"

%struct.Mio_Cell2_t_ = type { ptr, ptr, i32, float, i64, i64, i32, [6 x i32], ptr }
%struct.Nf_Cfg_t_ = type { i32 }
%struct.Vec_Int_t_ = type { i32, i32, ptr }
%struct.Nf_Man_t_ = type { ptr, ptr, ptr, ptr, ptr, ptr, i32, ptr, %struct.Vec_Ptr_t_, %struct.Vec_Int_t_, %struct.Vec_Int_t_, %struct.Vec_Flt_t_, %struct.Vec_Int_t_, %struct.Vec_Flt_t_, %struct.Vec_Int_t_, %struct.Vec_Int_t_, i32, i32, i32, i32, i32, i64, float, i64, [6 x double], i32 }
%struct.Vec_Ptr_t_ = type { i32, i32, ptr }
%struct.Vec_Flt_t_ = type { i32, i32, ptr }
%struct.Nf_Obj_t_ = type { [2 x [2 x %struct.Nf_Mat_t_]] }
%struct.Nf_Mat_t_ = type { i32, %struct.Nf_Cfg_t_, i32, float }

; Function Attrs: inlinehint nounwind uwtable
define internal ptr @Nf_ManObj(ptr noundef %0, i32 noundef %1) #2 {
  %3 = alloca ptr, align 8
  %4 = alloca i32, align 4
  store ptr %0, ptr %3, align 8, !tbaa !61
  store i32 %1, ptr %4, align 4, !tbaa !17
  %5 = load ptr, ptr %3, align 8, !tbaa !61
  %6 = getelementptr inbounds nuw %struct.Nf_Man_t_, ptr %5, i32 0, i32 7
  %7 = load ptr, ptr %6, align 8, !tbaa !104
  %8 = load i32, ptr %4, align 4, !tbaa !17
  %9 = sext i32 %8 to i64
  %10 = getelementptr inbounds %struct.Nf_Obj_t_, ptr %7, i64 %9
  ret ptr %10
}

; Function Attrs: inlinehint nounwind uwtable
define internal ptr @Nf_ObjMatchA(ptr noundef %0, i32 noundef %1, i32 noundef %2) #2 {
  %4 = alloca ptr, align 8
  %5 = alloca i32, align 4
  %6 = alloca i32, align 4
  store ptr %0, ptr %4, align 8, !tbaa !61
  store i32 %1, ptr %5, align 4, !tbaa !17
  store i32 %2, ptr %6, align 4, !tbaa !17
  %7 = load ptr, ptr %4, align 8, !tbaa !61
  %8 = load i32, ptr %5, align 4, !tbaa !17
  %9 = call ptr @Nf_ManObj(ptr noundef %7, i32 noundef %8)
  %10 = getelementptr inbounds nuw %struct.Nf_Obj_t_, ptr %9, i32 0, i32 0
  %11 = load i32, ptr %6, align 4, !tbaa !17
  %12 = sext i32 %11 to i64
  %13 = getelementptr inbounds [2 x [2 x %struct.Nf_Mat_t_]], ptr %10, i64 0, i64 %12
  %14 = getelementptr inbounds [2 x %struct.Nf_Mat_t_], ptr %13, i64 0, i64 1
  ret ptr %14
}

; Function Attrs: inlinehint nounwind uwtable
define internal ptr @Nf_ObjMatchD(ptr noundef %0, i32 noundef %1, i32 noundef %2) #2 {
  %4 = alloca ptr, align 8
  %5 = alloca i32, align 4
  %6 = alloca i32, align 4
  store ptr %0, ptr %4, align 8, !tbaa !61
  store i32 %1, ptr %5, align 4, !tbaa !17
  store i32 %2, ptr %6, align 4, !tbaa !17
  %7 = load ptr, ptr %4, align 8, !tbaa !61
  %8 = load i32, ptr %5, align 4, !tbaa !17
  %9 = call ptr @Nf_ManObj(ptr noundef %7, i32 noundef %8)
  %10 = getelementptr inbounds nuw %struct.Nf_Obj_t_, ptr %9, i32 0, i32 0
  %11 = load i32, ptr %6, align 4, !tbaa !17
  %12 = sext i32 %11 to i64
  %13 = getelementptr inbounds [2 x [2 x %struct.Nf_Mat_t_]], ptr %10, i64 0, i64 %12
  %14 = getelementptr inbounds [2 x %struct.Nf_Mat_t_], ptr %13, i64 0, i64 0
  ret ptr %14
}

; Function Attrs: inlinehint nounwind uwtable
define internal i32 @Abc_MaxInt(i32 noundef %0, i32 noundef %1) #2 {
  %3 = alloca i32, align 4
  %4 = alloca i32, align 4
  store i32 %0, ptr %3, align 4, !tbaa !17
  store i32 %1, ptr %4, align 4, !tbaa !17
  %5 = load i32, ptr %3, align 4, !tbaa !17
  %6 = load i32, ptr %4, align 4, !tbaa !17
  %7 = icmp sgt i32 %5, %6
  br i1 %7, label %8, label %10

8:                                                ; preds = %2
  %9 = load i32, ptr %3, align 4, !tbaa !17
  br label %12

10:                                               ; preds = %2
  %11 = load i32, ptr %4, align 4, !tbaa !17
  br label %12

12:                                               ; preds = %10, %8
  %13 = phi i32 [ %9, %8 ], [ %11, %10 ]
  ret i32 %13
}

; Function Attrs: inlinehint nounwind uwtable
define internal ptr @Nf_ObjMatchBest(ptr noundef %0, i32 noundef %1, i32 noundef %2) #2 {
  %4 = alloca ptr, align 8
  %5 = alloca ptr, align 8
  %6 = alloca i32, align 4
  %7 = alloca i32, align 4
  %8 = alloca ptr, align 8
  %9 = alloca ptr, align 8
  %10 = alloca i32, align 4
  store ptr %0, ptr %5, align 8, !tbaa !61
  store i32 %1, ptr %6, align 4, !tbaa !17
  store i32 %2, ptr %7, align 4, !tbaa !17
  call void @llvm.lifetime.start.p0(i64 8, ptr %8) #13
  %11 = load ptr, ptr %5, align 8, !tbaa !61
  %12 = load i32, ptr %6, align 4, !tbaa !17
  %13 = load i32, ptr %7, align 4, !tbaa !17
  %14 = call ptr @Nf_ObjMatchD(ptr noundef %11, i32 noundef %12, i32 noundef %13)
  store ptr %14, ptr %8, align 8, !tbaa !193
  call void @llvm.lifetime.start.p0(i64 8, ptr %9) #13
  %15 = load ptr, ptr %5, align 8, !tbaa !61
  %16 = load i32, ptr %6, align 4, !tbaa !17
  %17 = load i32, ptr %7, align 4, !tbaa !17
  %18 = call ptr @Nf_ObjMatchA(ptr noundef %15, i32 noundef %16, i32 noundef %17)
  store ptr %18, ptr %9, align 8, !tbaa !193
  %19 = load ptr, ptr %9, align 8, !tbaa !193
  %20 = load i32, ptr %19, align 4
  %21 = lshr i32 %20, 31
  %22 = icmp ne i32 %21, 0
  br i1 %22, label %23, label %25

23:                                               ; preds = %3
  %24 = load ptr, ptr %9, align 8, !tbaa !193
  store ptr %24, ptr %4, align 8
  store i32 1, ptr %10, align 4
  br label %33

25:                                               ; preds = %3
  %26 = load ptr, ptr %8, align 8, !tbaa !193
  %27 = load i32, ptr %26, align 4
  %28 = lshr i32 %27, 31
  %29 = icmp ne i32 %28, 0
  br i1 %29, label %30, label %32

30:                                               ; preds = %25
  %31 = load ptr, ptr %8, align 8, !tbaa !193
  store ptr %31, ptr %4, align 8
  store i32 1, ptr %10, align 4
  br label %33

32:                                               ; preds = %25
  store ptr null, ptr %4, align 8
  store i32 1, ptr %10, align 4
  br label %33

33:                                               ; preds = %32, %30, %23
  call void @llvm.lifetime.end.p0(i64 8, ptr %9) #13
  call void @llvm.lifetime.end.p0(i64 8, ptr %8) #13
  %34 = load ptr, ptr %4, align 8
  ret ptr %34
}

; Function Attrs: inlinehint nounwind uwtable
define internal i32 @Nf_CfgCompl(i32 %0, i32 noundef %1) #2 {
  %3 = alloca %struct.Nf_Cfg_t_, align 4
  %4 = alloca i32, align 4
  %5 = getelementptr inbounds nuw %struct.Nf_Cfg_t_, ptr %3, i32 0, i32 0
  store i32 %0, ptr %5, align 4
  store i32 %1, ptr %4, align 4, !tbaa !17
  %6 = load i32, ptr %3, align 4
  %7 = lshr i32 %6, 1
  %8 = and i32 %7, 127
  %9 = load i32, ptr %4, align 4, !tbaa !17
  %10 = ashr i32 %8, %9
  %11 = and i32 %10, 1
  ret i32 %11
}

; Function Attrs: inlinehint nounwind uwtable
define internal i32 @Nf_CfgVar(i32 %0, i32 noundef %1) #2 {
  %3 = alloca %struct.Nf_Cfg_t_, align 4
  %4 = alloca i32, align 4
  %5 = getelementptr inbounds nuw %struct.Nf_Cfg_t_, ptr %3, i32 0, i32 0
  store i32 %0, ptr %5, align 4
  store i32 %1, ptr %4, align 4, !tbaa !17
  %6 = load i32, ptr %3, align 4
  %7 = lshr i32 %6, 8
  %8 = load i32, ptr %4, align 4, !tbaa !17
  %9 = shl i32 %8, 2
  %10 = ashr i32 %7, %9
  %11 = and i32 %10, 15
  ret i32 %11
}

; Function Attrs: inlinehint nounwind uwtable
define internal ptr @Nf_CutLeaves(ptr noundef %0) #2 {
  %2 = alloca ptr, align 8
  store ptr %0, ptr %2, align 8, !tbaa !8
  %3 = load ptr, ptr %2, align 8, !tbaa !8
  %4 = getelementptr inbounds i32, ptr %3, i64 1
  ret ptr %4
}

; Function Attrs: inlinehint nounwind uwtable
define internal i32 @Nf_CutSize(ptr noundef %0) #2 {
  %2 = alloca ptr, align 8
  store ptr %0, ptr %2, align 8, !tbaa !8
  %3 = load ptr, ptr %2, align 8, !tbaa !8
  %4 = getelementptr inbounds i32, ptr %3, i64 0
  %5 = load i32, ptr %4, align 4, !tbaa !17
  %6 = and i32 %5, 31
  ret i32 %6
}

; Function Attrs: inlinehint nounwind uwtable
define internal ptr @Nf_CutFromHandle(ptr noundef %0, i32 noundef %1) #2 {
  %3 = alloca ptr, align 8
  %4 = alloca i32, align 4
  store ptr %0, ptr %3, align 8, !tbaa !8
  store i32 %1, ptr %4, align 4, !tbaa !17
  %5 = load ptr, ptr %3, align 8, !tbaa !8
  %6 = load i32, ptr %4, align 4, !tbaa !17
  %7 = sext i32 %6 to i64
  %8 = getelementptr inbounds i32, ptr %5, i64 %7
  ret ptr %8
}

; Function Attrs: inlinehint nounwind uwtable
define internal ptr @Nf_ManCell(ptr noundef %0, i32 noundef %1) #2 {
  %3 = alloca ptr, align 8
  %4 = alloca i32, align 4
  store ptr %0, ptr %3, align 8, !tbaa !61
  store i32 %1, ptr %4, align 4, !tbaa !17
  %5 = load ptr, ptr %3, align 8, !tbaa !61
  %6 = getelementptr inbounds nuw %struct.Nf_Man_t_, ptr %5, i32 0, i32 5
  %7 = load ptr, ptr %6, align 8, !tbaa !63
  %8 = load i32, ptr %4, align 4, !tbaa !17
  %9 = sext i32 %8 to i64
  %10 = getelementptr inbounds %struct.Mio_Cell2_t_, ptr %7, i64 %9
  ret ptr %10
}

; Function Attrs: nounwind uwtable
define i32 @Nf_ManComputeArrival(ptr noundef %0, ptr noundef %1, ptr noundef %2) #0 {
  %4 = alloca ptr, align 8
  %5 = alloca ptr, align 8
  %6 = alloca ptr, align 8
  %7 = alloca i32, align 4
  %8 = alloca ptr, align 8
  %9 = alloca i32, align 4
  %10 = alloca i32, align 4
  %11 = alloca i32, align 4
  %12 = alloca ptr, align 8
  %13 = alloca ptr, align 8
  store ptr %0, ptr %4, align 8, !tbaa !61
  store ptr %1, ptr %5, align 8, !tbaa !193
  store ptr %2, ptr %6, align 8, !tbaa !8
  call void @llvm.lifetime.start.p0(i64 4, ptr %7) #13
  store i32 0, ptr %7, align 4, !tbaa !17
  call void @llvm.lifetime.start.p0(i64 8, ptr %8) #13
  call void @llvm.lifetime.start.p0(i64 4, ptr %9) #13
  call void @llvm.lifetime.start.p0(i64 4, ptr %10) #13
  call void @llvm.lifetime.start.p0(i64 4, ptr %11) #13
  call void @llvm.lifetime.start.p0(i64 8, ptr %12) #13
  %14 = load ptr, ptr %4, align 8, !tbaa !61
  %15 = load ptr, ptr %5, align 8, !tbaa !193
  %16 = load i32, ptr %15, align 4
  %17 = and i32 %16, 1048575
  %18 = call ptr @Nf_ManCell(ptr noundef %14, i32 noundef %17)
  store ptr %18, ptr %12, align 8, !tbaa !3
  call void @llvm.lifetime.start.p0(i64 8, ptr %13) #13
  %19 = load ptr, ptr %6, align 8, !tbaa !8
  %20 = load ptr, ptr %5, align 8, !tbaa !193
  %21 = load i32, ptr %20, align 4
  %22 = lshr i32 %21, 20
  %23 = and i32 %22, 1023
  %24 = call ptr @Nf_CutFromHandle(ptr noundef %19, i32 noundef %23)
  store ptr %24, ptr %13, align 8, !tbaa !8
  store i32 0, ptr %11, align 4, !tbaa !17
  br label %25

25:                                               ; preds = %69, %3
  %26 = load i32, ptr %11, align 4, !tbaa !17
  %27 = load ptr, ptr %13, align 8, !tbaa !8
  %28 = call i32 @Nf_CutSize(ptr noundef %27)
  %29 = icmp slt i32 %26, %28
  br i1 %29, label %30, label %50

30:                                               ; preds = %25
  %31 = load ptr, ptr %13, align 8, !tbaa !8
  %32 = call ptr @Nf_CutLeaves(ptr noundef %31)
  %33 = load ptr, ptr %5, align 8, !tbaa !193
  %34 = getelementptr inbounds nuw %struct.Nf_Mat_t_, ptr %33, i32 0, i32 1
  %35 = load i32, ptr %11, align 4, !tbaa !17
  %36 = getelementptr inbounds nuw %struct.Nf_Cfg_t_, ptr %34, i32 0, i32 0
  %37 = load i32, ptr %36, align 4
  %38 = call i32 @Nf_CfgVar(i32 %37, i32 noundef %35)
  %39 = sext i32 %38 to i64
  %40 = getelementptr inbounds i32, ptr %32, i64 %39
  %41 = load i32, ptr %40, align 4, !tbaa !17
  store i32 %41, ptr %9, align 4, !tbaa !17
  %42 = icmp ne i32 %41, 0
  br i1 %42, label %43, label %50

43:                                               ; preds = %30
  %44 = load ptr, ptr %5, align 8, !tbaa !193
  %45 = getelementptr inbounds nuw %struct.Nf_Mat_t_, ptr %44, i32 0, i32 1
  %46 = load i32, ptr %11, align 4, !tbaa !17
  %47 = getelementptr inbounds nuw %struct.Nf_Cfg_t_, ptr %45, i32 0, i32 0
  %48 = load i32, ptr %47, align 4
  %49 = call i32 @Nf_CfgCompl(i32 %48, i32 noundef %46)
  store i32 %49, ptr %10, align 4, !tbaa !17
  br label %50

50:                                               ; preds = %43, %30, %25
  %51 = phi i1 [ false, %30 ], [ false, %25 ], [ true, %43 ]
  br i1 %51, label %52, label %72

52:                                               ; preds = %50
  %53 = load ptr, ptr %4, align 8, !tbaa !61
  %54 = load i32, ptr %9, align 4, !tbaa !17
  %55 = load i32, ptr %10, align 4, !tbaa !17
  %56 = call ptr @Nf_ObjMatchBest(ptr noundef %53, i32 noundef %54, i32 noundef %55)
  store ptr %56, ptr %8, align 8, !tbaa !193
  %57 = load i32, ptr %7, align 4, !tbaa !17
  %58 = load ptr, ptr %8, align 8, !tbaa !193
  %59 = getelementptr inbounds nuw %struct.Nf_Mat_t_, ptr %58, i32 0, i32 2
  %60 = load i32, ptr %59, align 4, !tbaa !195
  %61 = load ptr, ptr %12, align 8, !tbaa !3
  %62 = getelementptr inbounds nuw %struct.Mio_Cell2_t_, ptr %61, i32 0, i32 7
  %63 = load i32, ptr %11, align 4, !tbaa !17
  %64 = sext i32 %63 to i64
  %65 = getelementptr inbounds [6 x i32], ptr %62, i64 0, i64 %64
  %66 = load i32, ptr %65, align 4, !tbaa !17
  %67 = add nsw i32 %60, %66
  %68 = call i32 @Abc_MaxInt(i32 noundef %57, i32 noundef %67)
  store i32 %68, ptr %7, align 4, !tbaa !17
  br label %69

69:                                               ; preds = %52
  %70 = load i32, ptr %11, align 4, !tbaa !17
  %71 = add nsw i32 %70, 1
  store i32 %71, ptr %11, align 4, !tbaa !17
  br label %25, !llvm.loop !240

72:                                               ; preds = %50
  %73 = load i32, ptr %7, align 4, !tbaa !17
  call void @llvm.lifetime.end.p0(i64 8, ptr %13) #13
  call void @llvm.lifetime.end.p0(i64 8, ptr %12) #13
  call void @llvm.lifetime.end.p0(i64 4, ptr %11) #13
  call void @llvm.lifetime.end.p0(i64 4, ptr %10) #13
  call void @llvm.lifetime.end.p0(i64 4, ptr %9) #13
  call void @llvm.lifetime.end.p0(i64 8, ptr %8) #13
  call void @llvm.lifetime.end.p0(i64 4, ptr %7) #13
  ret i32 %73
}