; Function Attrs: nofree norecurse nosync nounwind memory(read, inaccessiblemem: none) uwtable
define range(i32 0, -2147483648) i32 @Nf_ManComputeArrival(ptr noundef readonly captures(none) %0, ptr noundef readonly captures(none) %1, ptr noundef readonly captures(none) %2) local_unnamed_addr #15 {
  %4 = load i32, ptr %1, align 4
  %5 = and i32 %4, 1048575
  %6 = getelementptr i8, ptr %0, i64 40
  %.val21 = load ptr, ptr %6, align 8, !tbaa !62
  %7 = zext nneg i32 %5 to i64
  %8 = lshr i32 %4, 20
  %9 = and i32 %8, 1023
  %10 = zext nneg i32 %9 to i64
  %11 = getelementptr inbounds nuw i32, ptr %2, i64 %10
  %12 = getelementptr inbounds nuw i8, ptr %11, i64 4
  %.val = load i32, ptr %11, align 4, !tbaa !13
  %13 = and i32 %.val, 31
  %.not27 = icmp eq i32 %13, 0
  br i1 %.not27, label %.critedge, label %.lr.ph

.lr.ph:                                           ; preds = %3
  %14 = getelementptr inbounds nuw i8, ptr %1, i64 4
  %15 = load i32, ptr %14, align 4
  %16 = lshr i32 %15, 8
  %17 = lshr i32 %15, 1
  %18 = and i32 %17, 127
  %19 = getelementptr i8, ptr %0, i64 56
  %wide.trip.count = zext nneg i32 %13 to i64
  br label %20

20:                                               ; preds = %.lr.ph, %Nf_ObjMatchBest.exit
  %indvars.iv = phi i64 [ 0, %.lr.ph ], [ %indvars.iv.next, %Nf_ObjMatchBest.exit ]
  %.024 = phi i32 [ 0, %.lr.ph ], [ %44, %Nf_ObjMatchBest.exit ]
  %indvars.iv.tr = trunc i64 %indvars.iv to i32
  %21 = shl i32 %indvars.iv.tr, 2
  %22 = lshr i32 %16, %21
  %23 = and i32 %22, 15
  %24 = zext nneg i32 %23 to i64
  %25 = getelementptr inbounds nuw i32, ptr %12, i64 %24
  %26 = load i32, ptr %25, align 4, !tbaa !13
  %.not = icmp eq i32 %26, 0
  br i1 %.not, label %.critedge, label %27

27:                                               ; preds = %20
  %28 = trunc nuw nsw i64 %indvars.iv to i32
  %29 = lshr i32 %18, %28
  %30 = and i32 %29, 1
  %.val22 = load ptr, ptr %19, align 8, !tbaa !105
  %31 = sext i32 %26 to i64
  %32 = getelementptr inbounds %struct.Nf_Obj_t_, ptr %.val22, i64 %31
  %33 = zext nneg i32 %30 to i64
  %34 = getelementptr inbounds nuw [2 x [2 x %struct.Nf_Mat_t_]], ptr %32, i64 0, i64 %33, i64 1
  %35 = load i32, ptr %34, align 4
  %.not.i = icmp sgt i32 %35, -1
  br i1 %.not.i, label %36, label %Nf_ObjMatchBest.exit

36:                                               ; preds = %27
  %37 = getelementptr inbounds nuw [2 x [2 x %struct.Nf_Mat_t_]], ptr %32, i64 0, i64 %33
  %38 = load i32, ptr %37, align 4
  %.not10.i = icmp sgt i32 %38, -1
  %..i = select i1 %.not10.i, ptr null, ptr %37
  br label %Nf_ObjMatchBest.exit

Nf_ObjMatchBest.exit:                             ; preds = %27, %36
  %.0.i = phi ptr [ %34, %27 ], [ %..i, %36 ]
  %39 = getelementptr inbounds nuw i8, ptr %.0.i, i64 8
  %40 = load i32, ptr %39, align 4, !tbaa !192
  %41 = getelementptr inbounds nuw %struct.Mio_Cell2_t_, ptr %.val21, i64 %7, i32 7, i64 %indvars.iv
  %42 = load i32, ptr %41, align 4, !tbaa !13
  %43 = add nsw i32 %42, %40
  %44 = tail call noundef i32 @llvm.smax.i32(i32 %.024, i32 %43)
  %indvars.iv.next = add nuw nsw i64 %indvars.iv, 1
  %exitcond.not = icmp eq i64 %indvars.iv.next, %wide.trip.count
  br i1 %exitcond.not, label %.critedge, label %20, !llvm.loop !241

.critedge:                                        ; preds = %Nf_ObjMatchBest.exit, %20, %3
  %.0.lcssa = phi i32 [ 0, %3 ], [ %.024, %20 ], [ %44, %Nf_ObjMatchBest.exit ]
  ret i32 %.0.lcssa
}